target datalayout = "e-m:e-p270:32:32-p271:32:32-p272:64:64-i64:64-i128:128-f80:128-n8:16:32:64-S128"
target triple = "x86_64-pc-linux-gnu"

%"class.OpenImageIO::v3_1_0::PNMInput" = type <{ %"class.OpenImageIO::v3_1_0::ImageInput", i32, i32, float, [4 x i8], %"class.std::vector.12", %"class.OpenImageIO::v3_1_0::basic_string_view", %"class.OpenImageIO::v3_1_0::basic_string_view", i32, i8, [3 x i8] }>
%"class.OpenImageIO::v3_1_0::ImageInput" = type { ptr, %"class.OpenImageIO::v3_1_0::ImageSpec", %"class.std::unique_ptr" }
%"class.OpenImageIO::v3_1_0::ImageSpec" = type { i32, i32, i32, i32, i32, i32, i32, i32, i32, i32, i32, i32, i32, i32, i32, i32, %"struct.OpenImageIO::v3_1_0::TypeDesc", %"class.std::vector", %"class.std::vector.0", i32, i32, i8, %"class.OpenImageIO::v3_1_0::ParamValueList" }
%"struct.OpenImageIO::v3_1_0::TypeDesc" = type { i8, i8, i8, i8, i32 }
%"class.std::vector" = type { %"struct.std::_Vector_base" }
%"struct.std::_Vector_base" = type { %"struct.std::_Vector_base<OpenImageIO::v3_1_0::TypeDesc, std::allocator<OpenImageIO::v3_1_0::TypeDesc>>::_Vector_impl" }
%"struct.std::_Vector_base<OpenImageIO::v3_1_0::TypeDesc, std::allocator<OpenImageIO::v3_1_0::TypeDesc>>::_Vector_impl" = type { %"struct.std::_Vector_base<OpenImageIO::v3_1_0::TypeDesc, std::allocator<OpenImageIO::v3_1_0::TypeDesc>>::_Vector_impl_data" }
%"struct.std::_Vector_base<OpenImageIO::v3_1_0::TypeDesc, std::allocator<OpenImageIO::v3_1_0::TypeDesc>>::_Vector_impl_data" = type { ptr, ptr, ptr }
%"class.std::vector.0" = type { %"struct.std::_Vector_base.1" }
%"struct.std::_Vector_base.1" = type { %"struct.std::_Vector_base<std::__cxx11::basic_string<char>, std::allocator<std::__cxx11::basic_string<char>>>::_Vector_impl" }
%"struct.std::_Vector_base<std::__cxx11::basic_string<char>, std::allocator<std::__cxx11::basic_string<char>>>::_Vector_impl" = type { %"struct.std::_Vector_base<std::__cxx11::basic_string<char>, std::allocator<std::__cxx11::basic_string<char>>>::_Vector_impl_data" }
%"struct.std::_Vector_base<std::__cxx11::basic_string<char>, std::allocator<std::__cxx11::basic_string<char>>>::_Vector_impl_data" = type { ptr, ptr, ptr }
%"class.OpenImageIO::v3_1_0::ParamValueList" = type { %"class.std::vector.5" }
%"class.std::vector.5" = type { %"struct.std::_Vector_base.6" }
%"struct.std::_Vector_base.6" = type { %"struct.std::_Vector_base<OpenImageIO::v3_1_0::ParamValue, std::allocator<OpenImageIO::v3_1_0::ParamValue>>::_Vector_impl" }
%"struct.std::_Vector_base<OpenImageIO::v3_1_0::ParamValue, std::allocator<OpenImageIO::v3_1_0::ParamValue>>::_Vector_impl" = type { %"struct.std::_Vector_base<OpenImageIO::v3_1_0::ParamValue, std::allocator<OpenImageIO::v3_1_0::ParamValue>>::_Vector_impl_data" }
%"struct.std::_Vector_base<OpenImageIO::v3_1_0::ParamValue, std::allocator<OpenImageIO::v3_1_0::ParamValue>>::_Vector_impl_data" = type { ptr, ptr, ptr }
%"class.std::unique_ptr" = type { %"struct.std::__uniq_ptr_data" }
%"struct.std::__uniq_ptr_data" = type { %"class.std::__uniq_ptr_impl" }
%"class.std::__uniq_ptr_impl" = type { %"class.std::tuple" }
%"class.std::tuple" = type { %"struct.std::_Tuple_impl" }
%"struct.std::_Tuple_impl" = type { %"struct.std::_Tuple_impl.10", %"struct.std::_Head_base.11" }
%"struct.std::_Tuple_impl.10" = type { %"struct.std::_Head_base" }
%"struct.std::_Head_base" = type { ptr }
%"struct.std::_Head_base.11" = type { ptr }
%"class.std::vector.12" = type { %"struct.std::_Vector_base.13" }
%"struct.std::_Vector_base.13" = type { %"struct.std::_Vector_base<char, std::allocator<char>>::_Vector_impl" }
%"struct.std::_Vector_base<char, std::allocator<char>>::_Vector_impl" = type { %"struct.std::_Vector_base<char, std::allocator<char>>::_Vector_impl_data" }
%"struct.std::_Vector_base<char, std::allocator<char>>::_Vector_impl_data" = type { ptr, ptr, ptr }
%"class.OpenImageIO::v3_1_0::basic_string_view" = type { ptr, i64 }
%"class.std::__cxx11::basic_string" = type { %"struct.std::__cxx11::basic_string<char>::_Alloc_hider", i64, %union.anon.22 }
%"struct.std::__cxx11::basic_string<char>::_Alloc_hider" = type { ptr }
%union.anon.22 = type { i64, [8 x i8] }
%"struct.OpenImageIO::v3_1_0::ROI" = type { i32, i32, i32, i32, i32, i32, i32, i32 }

; Function Attrs: mustprogress nounwind uwtable
define available_externally noundef ptr @_ZNKSt7__cxx1112basic_stringIcSt11char_traitsIcESaIcEE7_M_dataEv(ptr noundef nonnull align 8 dereferenceable(32) %0) #7 align 2 {
  %2 = alloca ptr, align 8
  store ptr %0, ptr %2, align 8, !tbaa !120
  %3 = load ptr, ptr %2, align 8
  %4 = getelementptr inbounds nuw %"class.std::__cxx11::basic_string", ptr %3, i32 0, i32 0
  %5 = getelementptr inbounds nuw %"struct.std::__cxx11::basic_string<char>::_Alloc_hider", ptr %4, i32 0, i32 0
  %6 = load ptr, ptr %5, align 8, !tbaa !201
  ret ptr %6
}

; Function Attrs: inlinehint mustprogress uwtable
define linkonce_odr noundef nonnull align 8 dereferenceable(24) ptr @_ZN11OpenImageIO6v3_1_014ParamValueListaSERKS1_(ptr noundef nonnull align 8 dereferenceable(24) %0, ptr noundef nonnull align 8 dereferenceable(24) %1) #10 comdat align 2 {
  %3 = alloca ptr, align 8
  %4 = alloca ptr, align 8
  store ptr %0, ptr %3, align 8, !tbaa !169
  store ptr %1, ptr %4, align 8, !tbaa !169
  %5 = load ptr, ptr %3, align 8
  %6 = load ptr, ptr %4, align 8, !tbaa !169
  %7 = call noundef nonnull align 8 dereferenceable(24) ptr @_ZNSt6vectorIN11OpenImageIO6v3_1_010ParamValueESaIS2_EEaSERKS4_(ptr noundef nonnull align 8 dereferenceable(24) %5, ptr noundef nonnull align 8 dereferenceable(24) %6)
  ret ptr %5
}

; Function Attrs: mustprogress nounwind uwtable
define linkonce_odr noundef ptr @_ZNKSt6vectorIcSaIcEE11_M_data_ptrIcEEPT_S4_(ptr noundef nonnull align 8 dereferenceable(24) %0, ptr noundef %1) #7 comdat align 2 {
  %3 = alloca ptr, align 8
  %4 = alloca ptr, align 8
  store ptr %0, ptr %3, align 8, !tbaa !123
  store ptr %1, ptr %4, align 8, !tbaa !56
  %5 = load ptr, ptr %4, align 8, !tbaa !56
  ret ptr %5
}

; Function Attrs: mustprogress nounwind uwtable
define available_externally noundef i64 @_ZNKSt7__cxx1112basic_stringIcSt11char_traitsIcESaIcEE4sizeEv(ptr noundef nonnull align 8 dereferenceable(32) %0) #7 align 2 {
  %2 = alloca ptr, align 8
  store ptr %0, ptr %2, align 8, !tbaa !120
  %3 = load ptr, ptr %2, align 8
  %4 = getelementptr inbounds nuw %"class.std::__cxx11::basic_string", ptr %3, i32 0, i32 1
  %5 = load i64, ptr %4, align 8, !tbaa !198
  ret i64 %5
}

; Function Attrs: mustprogress nounwind uwtable
define available_externally noundef ptr @_ZNKSt7__cxx1112basic_stringIcSt11char_traitsIcESaIcEE4dataEv(ptr noundef nonnull align 8 dereferenceable(32) %0) #7 align 2 {
  %2 = alloca ptr, align 8
  store ptr %0, ptr %2, align 8, !tbaa !120
  %3 = load ptr, ptr %2, align 8
  %4 = call noundef ptr @_ZNKSt7__cxx1112basic_stringIcSt11char_traitsIcESaIcEE7_M_dataEv(ptr noundef nonnull align 8 dereferenceable(32) %3)
  ret ptr %4
}

; Function Attrs: inlinehint mustprogress uwtable
define linkonce_odr noundef nonnull align 8 dereferenceable(160) ptr @_ZN11OpenImageIO6v3_1_09ImageSpecaSERKS1_(ptr noundef nonnull align 8 dereferenceable(160) %0, ptr noundef nonnull align 8 dereferenceable(160) %1) #10 comdat align 2 {
  %3 = alloca ptr, align 8
  %4 = alloca ptr, align 8
  store ptr %0, ptr %3, align 8, !tbaa !117
  store ptr %1, ptr %4, align 8, !tbaa !117
  %5 = load ptr, ptr %3, align 8
  %6 = getelementptr inbounds nuw %"class.OpenImageIO::v3_1_0::ImageSpec", ptr %5, i32 0, i32 0
  %7 = load ptr, ptr %4, align 8
  %8 = getelementptr inbounds nuw %"class.OpenImageIO::v3_1_0::ImageSpec", ptr %7, i32 0, i32 0
  call void @llvm.memcpy.p0.p0.i64(ptr align 8 %6, ptr align 8 %8, i64 72, i1 false)
  %9 = getelementptr inbounds nuw %"class.OpenImageIO::v3_1_0::ImageSpec", ptr %5, i32 0, i32 17
  %10 = load ptr, ptr %4, align 8, !tbaa !117
  %11 = getelementptr inbounds nuw %"class.OpenImageIO::v3_1_0::ImageSpec", ptr %10, i32 0, i32 17
  %12 = call noundef nonnull align 8 dereferenceable(24) ptr @_ZNSt6vectorIN11OpenImageIO6v3_1_08TypeDescESaIS2_EEaSERKS4_(ptr noundef nonnull align 8 dereferenceable(24) %9, ptr noundef nonnull align 8 dereferenceable(24) %11)
  %13 = getelementptr inbounds nuw %"class.OpenImageIO::v3_1_0::ImageSpec", ptr %5, i32 0, i32 18
  %14 = load ptr, ptr %4, align 8, !tbaa !117
  %15 = getelementptr inbounds nuw %"class.OpenImageIO::v3_1_0::ImageSpec", ptr %14, i32 0, i32 18
  %16 = call noundef nonnull align 8 dereferenceable(24) ptr @_ZNSt6vectorINSt7__cxx1112basic_stringIcSt11char_traitsIcESaIcEEESaIS5_EEaSERKS7_(ptr noundef nonnull align 8 dereferenceable(24) %13, ptr noundef nonnull align 8 dereferenceable(24) %15)
  %17 = getelementptr inbounds nuw %"class.OpenImageIO::v3_1_0::ImageSpec", ptr %5, i32 0, i32 19
  %18 = load ptr, ptr %4, align 8
  %19 = getelementptr inbounds nuw %"class.OpenImageIO::v3_1_0::ImageSpec", ptr %18, i32 0, i32 19
  call void @llvm.memcpy.p0.p0.i64(ptr align 8 %17, ptr align 8 %19, i64 9, i1 false)
  %20 = getelementptr inbounds nuw %"class.OpenImageIO::v3_1_0::ImageSpec", ptr %5, i32 0, i32 22
  %21 = load ptr, ptr %4, align 8, !tbaa !117
  %22 = getelementptr inbounds nuw %"class.OpenImageIO::v3_1_0::ImageSpec", ptr %21, i32 0, i32 22
  %23 = call noundef nonnull align 8 dereferenceable(24) ptr @_ZN11OpenImageIO6v3_1_014ParamValueListaSERKS1_(ptr noundef nonnull align 8 dereferenceable(24) %20, ptr noundef nonnull align 8 dereferenceable(24) %22)
  ret ptr %5
}

; Function Attrs: mustprogress nounwind uwtable
define linkonce_odr hidden void @_ZN11OpenImageIO6v3_1_03ROIC2Eiiiiiiii(ptr noundef nonnull align 4 dereferenceable(32) %0, i32 noundef %1, i32 noundef %2, i32 noundef %3, i32 noundef %4, i32 noundef %5, i32 noundef %6, i32 noundef %7, i32 noundef %8) unnamed_addr #7 comdat align 2 {
  %10 = alloca ptr, align 8
  %11 = alloca i32, align 4
  %12 = alloca i32, align 4
  %13 = alloca i32, align 4
  %14 = alloca i32, align 4
  %15 = alloca i32, align 4
  %16 = alloca i32, align 4
  %17 = alloca i32, align 4
  %18 = alloca i32, align 4
  store ptr %0, ptr %10, align 8, !tbaa !127
  store i32 %1, ptr %11, align 4, !tbaa !13
  store i32 %2, ptr %12, align 4, !tbaa !13
  store i32 %3, ptr %13, align 4, !tbaa !13
  store i32 %4, ptr %14, align 4, !tbaa !13
  store i32 %5, ptr %15, align 4, !tbaa !13
  store i32 %6, ptr %16, align 4, !tbaa !13
  store i32 %7, ptr %17, align 4, !tbaa !13
  store i32 %8, ptr %18, align 4, !tbaa !13
  %19 = load ptr, ptr %10, align 8
  %20 = getelementptr inbounds nuw %"struct.OpenImageIO::v3_1_0::ROI", ptr %19, i32 0, i32 0
  %21 = load i32, ptr %11, align 4, !tbaa !13
  store i32 %21, ptr %20, align 4, !tbaa !129
  %22 = getelementptr inbounds nuw %"struct.OpenImageIO::v3_1_0::ROI", ptr %19, i32 0, i32 1
  %23 = load i32, ptr %12, align 4, !tbaa !13
  store i32 %23, ptr %22, align 4, !tbaa !131
  %24 = getelementptr inbounds nuw %"struct.OpenImageIO::v3_1_0::ROI", ptr %19, i32 0, i32 2
  %25 = load i32, ptr %13, align 4, !tbaa !13
  store i32 %25, ptr %24, align 4, !tbaa !132
  %26 = getelementptr inbounds nuw %"struct.OpenImageIO::v3_1_0::ROI", ptr %19, i32 0, i32 3
  %27 = load i32, ptr %14, align 4, !tbaa !13
  store i32 %27, ptr %26, align 4, !tbaa !133
  %28 = getelementptr inbounds nuw %"struct.OpenImageIO::v3_1_0::ROI", ptr %19, i32 0, i32 4
  %29 = load i32, ptr %15, align 4, !tbaa !13
  store i32 %29, ptr %28, align 4, !tbaa !134
  %30 = getelementptr inbounds nuw %"struct.OpenImageIO::v3_1_0::ROI", ptr %19, i32 0, i32 5
  %31 = load i32, ptr %16, align 4, !tbaa !13
  store i32 %31, ptr %30, align 4, !tbaa !135
  %32 = getelementptr inbounds nuw %"struct.OpenImageIO::v3_1_0::ROI", ptr %19, i32 0, i32 6
  %33 = load i32, ptr %17, align 4, !tbaa !13
  store i32 %33, ptr %32, align 4, !tbaa !136
  %34 = getelementptr inbounds nuw %"struct.OpenImageIO::v3_1_0::ROI", ptr %19, i32 0, i32 7
  %35 = load i32, ptr %18, align 4, !tbaa !13
  store i32 %35, ptr %34, align 4, !tbaa !137
  ret void
}

; Function Attrs: mustprogress nounwind uwtable
define linkonce_odr hidden void @_ZN11OpenImageIO6v3_1_017basic_string_viewIcSt11char_traitsIcEEC2EPKcm(ptr noundef nonnull align 8 dereferenceable(16) %0, ptr noundef %1, i64 noundef %2) unnamed_addr #7 comdat align 2 {
  %4 = alloca ptr, align 8
  %5 = alloca ptr, align 8
  %6 = alloca i64, align 8
  store ptr %0, ptr %4, align 8, !tbaa !73
  store ptr %1, ptr %5, align 8, !tbaa !56
  store i64 %2, ptr %6, align 8, !tbaa !57
  %7 = load ptr, ptr %4, align 8
  %8 = getelementptr inbounds nuw %"class.OpenImageIO::v3_1_0::basic_string_view", ptr %7, i32 0, i32 0
  %9 = load ptr, ptr %5, align 8, !tbaa !56
  store ptr %9, ptr %8, align 8, !tbaa !78
  %10 = getelementptr inbounds nuw %"class.OpenImageIO::v3_1_0::basic_string_view", ptr %7, i32 0, i32 1
  %11 = load i64, ptr %6, align 8, !tbaa !57
  store i64 %11, ptr %10, align 8, !tbaa !75
  ret void
}

; Function Attrs: mustprogress nounwind uwtable
define linkonce_odr noundef i64 @_ZNKSt6vectorIcSaIcEE4sizeEv(ptr noundef nonnull align 8 dereferenceable(24) %0) #7 comdat align 2 {
  %2 = alloca ptr, align 8
  store ptr %0, ptr %2, align 8, !tbaa !123
  %3 = load ptr, ptr %2, align 8
  %4 = getelementptr inbounds nuw %"struct.std::_Vector_base.13", ptr %3, i32 0, i32 0
  %5 = getelementptr inbounds nuw %"struct.std::_Vector_base<char, std::allocator<char>>::_Vector_impl_data", ptr %4, i32 0, i32 1
  %6 = load ptr, ptr %5, align 8, !tbaa !126
  %7 = getelementptr inbounds nuw %"struct.std::_Vector_base.13", ptr %3, i32 0, i32 0
  %8 = getelementptr inbounds nuw %"struct.std::_Vector_base<char, std::allocator<char>>::_Vector_impl_data", ptr %7, i32 0, i32 0
  %9 = load ptr, ptr %8, align 8, !tbaa !125
  %10 = ptrtoint ptr %6 to i64
  %11 = ptrtoint ptr %9 to i64
  %12 = sub i64 %10, %11
  ret i64 %12
}

; Function Attrs: mustprogress nounwind uwtable
define linkonce_odr noundef ptr @_ZNSt6vectorIcSaIcEE4dataEv(ptr noundef nonnull align 8 dereferenceable(24) %0) #7 comdat align 2 {
  %2 = alloca ptr, align 8
  store ptr %0, ptr %2, align 8, !tbaa !123
  %3 = load ptr, ptr %2, align 8
  %4 = getelementptr inbounds nuw %"struct.std::_Vector_base.13", ptr %3, i32 0, i32 0
  %5 = getelementptr inbounds nuw %"struct.std::_Vector_base<char, std::allocator<char>>::_Vector_impl_data", ptr %4, i32 0, i32 0
  %6 = load ptr, ptr %5, align 8, !tbaa !125
  %7 = call noundef ptr @_ZNKSt6vectorIcSaIcEE11_M_data_ptrIcEEPT_S4_(ptr noundef nonnull align 8 dereferenceable(24) %3, ptr noundef %6) #3
  ret ptr %7
}

; Function Attrs: mustprogress nounwind uwtable
define linkonce_odr hidden void @_ZN11OpenImageIO6v3_1_017basic_string_viewIcSt11char_traitsIcEEC2ERKNSt7__cxx1112basic_stringIcS3_SaIcEEE(ptr noundef nonnull align 8 dereferenceable(16) %0, ptr noundef nonnull align 8 dereferenceable(32) %1) unnamed_addr #7 comdat align 2 {
  %3 = alloca ptr, align 8
  %4 = alloca ptr, align 8
  store ptr %0, ptr %3, align 8, !tbaa !73
  store ptr %1, ptr %4, align 8, !tbaa !120
  %5 = load ptr, ptr %3, align 8
  %6 = getelementptr inbounds nuw %"class.OpenImageIO::v3_1_0::basic_string_view", ptr %5, i32 0, i32 0
  %7 = load ptr, ptr %4, align 8, !tbaa !120
  %8 = call noundef ptr @_ZNKSt7__cxx1112basic_stringIcSt11char_traitsIcESaIcEE4dataEv(ptr noundef nonnull align 8 dereferenceable(32) %7) #3
  store ptr %8, ptr %6, align 8, !tbaa !78
  %9 = getelementptr inbounds nuw %"class.OpenImageIO::v3_1_0::basic_string_view", ptr %5, i32 0, i32 1
  %10 = load ptr, ptr %4, align 8, !tbaa !120
  %11 = call noundef i64 @_ZNKSt7__cxx1112basic_stringIcSt11char_traitsIcESaIcEE4sizeEv(ptr noundef nonnull align 8 dereferenceable(32) %10) #3
  store i64 %11, ptr %9, align 8, !tbaa !75
  ret void
}

; Function Attrs: mustprogress uwtable
define hidden noundef zeroext i1 @_ZN11OpenImageIO6v3_1_08PNMInput4openERKNSt7__cxx1112basic_stringIcSt11char_traitsIcESaIcEEERNS0_9ImageSpecE(ptr noundef nonnull align 8 dereferenceable(264) %0, ptr noundef nonnull align 8 dereferenceable(32) %1, ptr noundef nonnull align 8 dereferenceable(160) %2) unnamed_addr #6 align 2 {
  %4 = alloca i1, align 1
  %5 = alloca ptr, align 8
  %6 = alloca ptr, align 8
  %7 = alloca ptr, align 8
  %8 = alloca %"class.OpenImageIO::v3_1_0::basic_string_view", align 8
  %9 = alloca ptr, align 8
  %10 = alloca %"class.OpenImageIO::v3_1_0::basic_string_view", align 8
  %11 = alloca i32, align 4
  %12 = alloca %"struct.OpenImageIO::v3_1_0::ROI", align 8
  store ptr %0, ptr %5, align 8, !tbaa !8
  store ptr %1, ptr %6, align 8, !tbaa !120
  store ptr %2, ptr %7, align 8, !tbaa !117
  %13 = load ptr, ptr %5, align 8
  %14 = load ptr, ptr %6, align 8, !tbaa !120
  call void @_ZN11OpenImageIO6v3_1_017basic_string_viewIcSt11char_traitsIcEEC2ERKNSt7__cxx1112basic_stringIcS3_SaIcEEE(ptr noundef nonnull align 8 dereferenceable(16) %8, ptr noundef nonnull align 8 dereferenceable(32) %14) #3
  %15 = call noundef zeroext i1 @_ZN11OpenImageIO6v3_1_010ImageInput19ioproxy_use_or_openENS0_17basic_string_viewIcSt11char_traitsIcEEE(ptr noundef nonnull align 8 dereferenceable(184) %13, ptr noundef %8)
  br i1 %15, label %17, label %16

16:                                               ; preds = %3
  store i1 false, ptr %4, align 1
  br label %51

17:                                               ; preds = %3
  call void @llvm.lifetime.start.p0(i64 8, ptr %9) #3
  %18 = call noundef ptr @_ZN11OpenImageIO6v3_1_010ImageInput7ioproxyEv(ptr noundef nonnull align 8 dereferenceable(184) %13)
  store ptr %18, ptr %9, align 8, !tbaa !121
  %19 = getelementptr inbounds nuw %"class.OpenImageIO::v3_1_0::PNMInput", ptr %13, i32 0, i32 5
  %20 = load ptr, ptr %9, align 8, !tbaa !121
  %21 = load ptr, ptr %20, align 8, !tbaa !10
  %22 = getelementptr inbounds ptr, ptr %21, i64 11
  %23 = load ptr, ptr %22, align 8
  %24 = call noundef i64 %23(ptr noundef nonnull align 8 dereferenceable(88) %20)
  call void @_ZNSt6vectorIcSaIcEE6resizeEm(ptr noundef nonnull align 8 dereferenceable(24) %19, i64 noundef %24)
  %25 = load ptr, ptr %9, align 8, !tbaa !121
  %26 = getelementptr inbounds nuw %"class.OpenImageIO::v3_1_0::PNMInput", ptr %13, i32 0, i32 5
  %27 = call noundef ptr @_ZNSt6vectorIcSaIcEE4dataEv(ptr noundef nonnull align 8 dereferenceable(24) %26) #3
  %28 = getelementptr inbounds nuw %"class.OpenImageIO::v3_1_0::PNMInput", ptr %13, i32 0, i32 5
  %29 = call noundef i64 @_ZNKSt6vectorIcSaIcEE4sizeEv(ptr noundef nonnull align 8 dereferenceable(24) %28) #3
  %30 = load ptr, ptr %25, align 8, !tbaa !10
  %31 = getelementptr inbounds ptr, ptr %30, i64 9
  %32 = load ptr, ptr %31, align 8
  %33 = call noundef i64 %32(ptr noundef nonnull align 8 dereferenceable(88) %25, ptr noundef %27, i64 noundef %29, i64 noundef 0)
  call void @llvm.lifetime.start.p0(i64 16, ptr %10) #3
  %34 = getelementptr inbounds nuw %"class.OpenImageIO::v3_1_0::PNMInput", ptr %13, i32 0, i32 5
  %35 = call noundef ptr @_ZNSt6vectorIcSaIcEE4dataEv(ptr noundef nonnull align 8 dereferenceable(24) %34) #3
  %36 = getelementptr inbounds nuw %"class.OpenImageIO::v3_1_0::PNMInput", ptr %13, i32 0, i32 5
  %37 = call noundef i64 @_ZNKSt6vectorIcSaIcEE4sizeEv(ptr noundef nonnull align 8 dereferenceable(24) %36) #3
  call void @_ZN11OpenImageIO6v3_1_017basic_string_viewIcSt11char_traitsIcEEC2EPKcm(ptr noundef nonnull align 8 dereferenceable(16) %10, ptr noundef %35, i64 noundef %37) #3
  %38 = getelementptr inbounds nuw %"class.OpenImageIO::v3_1_0::PNMInput", ptr %13, i32 0, i32 6
  call void @llvm.memcpy.p0.p0.i64(ptr align 8 %38, ptr align 8 %10, i64 16, i1 false), !tbaa.struct !55
  call void @llvm.lifetime.end.p0(i64 16, ptr %10) #3
  %39 = getelementptr inbounds nuw %"class.OpenImageIO::v3_1_0::PNMInput", ptr %13, i32 0, i32 9
  store i8 0, ptr %39, align 4, !tbaa !64
  %40 = call noundef zeroext i1 @_ZN11OpenImageIO6v3_1_08PNMInput16read_file_headerEv(ptr noundef nonnull align 8 dereferenceable(264) %13)
  br i1 %40, label %42, label %41

41:                                               ; preds = %17
  store i1 false, ptr %4, align 1
  store i32 1, ptr %11, align 4
  br label %50

42:                                               ; preds = %17
  %43 = getelementptr inbounds nuw %"class.OpenImageIO::v3_1_0::ImageInput", ptr %13, i32 0, i32 1
  call void @_ZN11OpenImageIO6v3_1_03ROIC2Eiiiiiiii(ptr noundef nonnull align 4 dereferenceable(32) %12, i32 noundef 0, i32 noundef 65535, i32 noundef 0, i32 noundef 65535, i32 noundef 0, i32 noundef 1, i32 noundef 0, i32 noundef 4) #3
  %44 = call noundef zeroext i1 @_ZN11OpenImageIO6v3_1_010ImageInput10check_openERKNS0_9ImageSpecENS0_3ROIEm(ptr noundef nonnull align 8 dereferenceable(184) %13, ptr noundef nonnull align 8 dereferenceable(160) %43, ptr noundef byval(%"struct.OpenImageIO::v3_1_0::ROI") align 8 %12, i64 noundef 0)
  br i1 %44, label %46, label %45

45:                                               ; preds = %42
  store i1 false, ptr %4, align 1
  store i32 1, ptr %11, align 4
  br label %50

46:                                               ; preds = %42
  %47 = getelementptr inbounds nuw %"class.OpenImageIO::v3_1_0::ImageInput", ptr %13, i32 0, i32 1
  %48 = load ptr, ptr %7, align 8, !tbaa !117
  %49 = call noundef nonnull align 8 dereferenceable(160) ptr @_ZN11OpenImageIO6v3_1_09ImageSpecaSERKS1_(ptr noundef nonnull align 8 dereferenceable(160) %48, ptr noundef nonnull align 8 dereferenceable(160) %47)
  store i1 true, ptr %4, align 1
  store i32 1, ptr %11, align 4
  br label %50

50:                                               ; preds = %46, %45, %41
  call void @llvm.lifetime.end.p0(i64 8, ptr %9) #3
  br label %51

51:                                               ; preds = %50, %16
  %52 = load i1, ptr %4, align 1
  ret i1 %52
}