; Function Attrs: mustprogress uwtable
define hidden noundef zeroext i1 @_ZN11OpenImageIO6v3_1_08PNMInput4openERKNSt7__cxx1112basic_stringIcSt11char_traitsIcESaIcEEERNS0_9ImageSpecE(ptr noundef nonnull align 8 dereferenceable(264) %0, ptr noundef nonnull readonly align 8 captures(none) dereferenceable(32) %1, ptr noundef nonnull align 8 dereferenceable(160) %2) unnamed_addr #5 align 2 {
  %4 = alloca %"class.OpenImageIO::v3_1_0::basic_string_view", align 8
  %5 = alloca %"struct.OpenImageIO::v3_1_0::ROI", align 8
  %6 = load ptr, ptr %1, align 8, !tbaa !90
  store ptr %6, ptr %4, align 8, !tbaa !66
  %7 = getelementptr inbounds nuw i8, ptr %4, i64 8
  %8 = getelementptr inbounds nuw i8, ptr %1, i64 8
  %9 = load i64, ptr %8, align 8, !tbaa !93
  store i64 %9, ptr %7, align 8, !tbaa !62
  %10 = call noundef zeroext i1 @_ZN11OpenImageIO6v3_1_010ImageInput19ioproxy_use_or_openENS0_17basic_string_viewIcSt11char_traitsIcEEE(ptr noundef nonnull align 8 dereferenceable(184) %0, ptr noundef nonnull %4)
  br i1 %10, label %11, label %58

11:                                               ; preds = %3
  %12 = call noundef ptr @_ZN11OpenImageIO6v3_1_010ImageInput7ioproxyEv(ptr noundef nonnull align 8 dereferenceable(184) %0)
  %13 = getelementptr inbounds nuw i8, ptr %0, i64 200
  %14 = load ptr, ptr %12, align 8, !tbaa !3
  %15 = getelementptr inbounds nuw i8, ptr %14, i64 88
  %16 = load ptr, ptr %15, align 8
  %17 = call noundef i64 %16(ptr noundef nonnull align 8 dereferenceable(88) %12)
  call void @_ZNSt6vectorIcSaIcEE6resizeEm(ptr noundef nonnull align 8 dereferenceable(24) %13, i64 noundef %17)
  %18 = load ptr, ptr %13, align 8, !tbaa !6
  %19 = getelementptr inbounds nuw i8, ptr %0, i64 208
  %20 = load ptr, ptr %19, align 8, !tbaa !105
  %21 = ptrtoint ptr %20 to i64
  %22 = ptrtoint ptr %18 to i64
  %23 = sub i64 %21, %22
  %24 = load ptr, ptr %12, align 8, !tbaa !3
  %25 = getelementptr inbounds nuw i8, ptr %24, i64 72
  %26 = load ptr, ptr %25, align 8
  %27 = call noundef i64 %26(ptr noundef nonnull align 8 dereferenceable(88) %12, ptr noundef %18, i64 noundef %23, i64 noundef 0)
  %28 = load ptr, ptr %13, align 8, !tbaa !6
  %29 = load ptr, ptr %19, align 8, !tbaa !105
  %30 = ptrtoint ptr %29 to i64
  %31 = ptrtoint ptr %28 to i64
  %32 = sub i64 %30, %31
  %33 = getelementptr inbounds nuw i8, ptr %0, i64 224
  store ptr %28, ptr %33, align 8, !tbaa !52
  %.sroa.4.0..sroa_idx = getelementptr inbounds nuw i8, ptr %0, i64 232
  store i64 %32, ptr %.sroa.4.0..sroa_idx, align 8, !tbaa !53
  %34 = getelementptr inbounds nuw i8, ptr %0, i64 260
  store i8 0, ptr %34, align 4, !tbaa !57
  %35 = call noundef zeroext i1 @_ZN11OpenImageIO6v3_1_08PNMInput16read_file_headerEv(ptr noundef nonnull align 8 dereferenceable(264) %0)
  br i1 %35, label %36, label %58

36:                                               ; preds = %11
  %37 = getelementptr inbounds nuw i8, ptr %0, i64 8
  store i32 0, ptr %5, align 8, !tbaa !106
  %38 = getelementptr inbounds nuw i8, ptr %5, i64 4
  store i32 65535, ptr %38, align 4, !tbaa !108
  %39 = getelementptr inbounds nuw i8, ptr %5, i64 8
  store i32 0, ptr %39, align 8, !tbaa !109
  %40 = getelementptr inbounds nuw i8, ptr %5, i64 12
  store i32 65535, ptr %40, align 4, !tbaa !110
  %41 = getelementptr inbounds nuw i8, ptr %5, i64 16
  store i32 0, ptr %41, align 8, !tbaa !111
  %42 = getelementptr inbounds nuw i8, ptr %5, i64 20
  store i32 1, ptr %42, align 4, !tbaa !112
  %43 = getelementptr inbounds nuw i8, ptr %5, i64 24
  store i32 0, ptr %43, align 8, !tbaa !113
  %44 = getelementptr inbounds nuw i8, ptr %5, i64 28
  store i32 4, ptr %44, align 4, !tbaa !114
  %45 = call noundef zeroext i1 @_ZN11OpenImageIO6v3_1_010ImageInput10check_openERKNS0_9ImageSpecENS0_3ROIEm(ptr noundef nonnull align 8 dereferenceable(184) %0, ptr noundef nonnull align 8 dereferenceable(160) %37, ptr noundef nonnull byval(%"struct.OpenImageIO::v3_1_0::ROI") align 8 %5, i64 noundef 0)
  br i1 %45, label %46, label %58

46:                                               ; preds = %36
  call void @llvm.memcpy.p0.p0.i64(ptr noundef nonnull align 8 dereferenceable(160) %2, ptr noundef nonnull align 8 dereferenceable(160) %37, i64 72, i1 false)
  %47 = getelementptr inbounds nuw i8, ptr %2, i64 72
  %48 = getelementptr inbounds nuw i8, ptr %0, i64 80
  %49 = call noundef nonnull align 8 dereferenceable(24) ptr @_ZNSt6vectorIN11OpenImageIO6v3_1_08TypeDescESaIS2_EEaSERKS4_(ptr noundef nonnull align 8 dereferenceable(24) %47, ptr noundef nonnull align 8 dereferenceable(24) %48)
  %50 = getelementptr inbounds nuw i8, ptr %2, i64 96
  %51 = getelementptr inbounds nuw i8, ptr %0, i64 104
  %52 = call noundef nonnull align 8 dereferenceable(24) ptr @_ZNSt6vectorINSt7__cxx1112basic_stringIcSt11char_traitsIcESaIcEEESaIS5_EEaSERKS7_(ptr noundef nonnull align 8 dereferenceable(24) %50, ptr noundef nonnull align 8 dereferenceable(24) %51)
  %53 = getelementptr inbounds nuw i8, ptr %2, i64 120
  %54 = getelementptr inbounds nuw i8, ptr %0, i64 128
  call void @llvm.memcpy.p0.p0.i64(ptr noundef nonnull align 8 dereferenceable(9) %53, ptr noundef nonnull align 8 dereferenceable(9) %54, i64 9, i1 false)
  %55 = getelementptr inbounds nuw i8, ptr %2, i64 136
  %56 = getelementptr inbounds nuw i8, ptr %0, i64 144
  %57 = call noundef nonnull align 8 dereferenceable(24) ptr @_ZNSt6vectorIN11OpenImageIO6v3_1_010ParamValueESaIS2_EEaSERKS4_(ptr noundef nonnull align 8 dereferenceable(24) %55, ptr noundef nonnull align 8 dereferenceable(24) %56)
  br label %58

58:                                               ; preds = %46, %11, %36, %3
  %.0 = phi i1 [ false, %3 ], [ true, %46 ], [ false, %11 ], [ false, %36 ]
  ret i1 %.0
}